target datalayout = "e-m:e-p270:32:32-p271:32:32-p272:64:64-i64:64-i128:128-f80:128-n8:16:32:64-S128"
target triple = "x86_64-pc-linux-gnu"

%"class.std::__cxx11::basic_string" = type { %"struct.std::__cxx11::basic_string<char>::_Alloc_hider", i64, %union.anon }
%"struct.std::__cxx11::basic_string<char>::_Alloc_hider" = type { ptr }
%union.anon = type { i64, [8 x i8] }
%"class.google::protobuf::internal::LogMessage" = type { i32, ptr, i32, %"class.std::__cxx11::basic_string" }
%"class.google::protobuf::internal::LogFinisher" = type { i8 }

@.str = private unnamed_addr constant [37 x i8] c"third_party/protobuf-lite/strutil.cc\00", align 1
@.str.11 = private unnamed_addr constant [4 x i8] c"inf\00", align 1
@.str.12 = private unnamed_addr constant [5 x i8] c"-inf\00", align 1
@.str.13 = private unnamed_addr constant [4 x i8] c"nan\00", align 1
@.str.14 = private unnamed_addr constant [5 x i8] c"%.*g\00", align 1
@.str.15 = private unnamed_addr constant [77 x i8] c"CHECK failed: snprintf_result > 0 && snprintf_result < kDoubleToBufferSize: \00", align 1

; Function Attrs: mustprogress nounwind uwtable
define linkonce_odr noundef zeroext i1 @_ZSt5isnand(double noundef %0) #6 comdat {
  %2 = alloca double, align 8
  store double %0, ptr %2, align 8, !tbaa !73
  %3 = load double, ptr %2, align 8, !tbaa !73
  %4 = call i1 @llvm.is.fpclass.f64(double %3, i32 3)
  ret i1 %4
}

; Function Attrs: mustprogress nounwind uwtable
define linkonce_odr noundef double @_ZNSt14numeric_limitsIdE8infinityEv() #6 comdat align 2 {
  ret double 0x7FF0000000000000
}

; Function Attrs: mustprogress uwtable
define noundef ptr @_ZN6google8protobuf14DoubleToBufferEdPc(double noundef %0, ptr noundef %1) #4 personality ptr @__gxx_personality_v0 {
  %3 = alloca ptr, align 8
  %4 = alloca double, align 8
  %5 = alloca ptr, align 8
  %6 = alloca i32, align 4
  %7 = alloca %"class.google::protobuf::internal::LogMessage", align 8
  %8 = alloca i1, align 1
  %9 = alloca i1, align 1
  %10 = alloca ptr, align 8
  %11 = alloca i32, align 4
  %12 = alloca %"class.google::protobuf::internal::LogFinisher", align 1
  %13 = alloca double, align 8
  %14 = alloca i32, align 4
  %15 = alloca %"class.google::protobuf::internal::LogMessage", align 8
  %16 = alloca i1, align 1
  %17 = alloca i1, align 1
  %18 = alloca %"class.google::protobuf::internal::LogFinisher", align 1
  store double %0, ptr %4, align 8, !tbaa !73
  store ptr %1, ptr %5, align 8, !tbaa !8
  %19 = load double, ptr %4, align 8, !tbaa !73
  %20 = call noundef double @_ZNSt14numeric_limitsIdE8infinityEv() #3
  %21 = fcmp oeq double %19, %20
  br i1 %21, label %22, label %26

22:                                               ; preds = %2
  %23 = load ptr, ptr %5, align 8, !tbaa !8
  %24 = call ptr @strcpy(ptr noundef %23, ptr noundef @.str.11) #3
  %25 = load ptr, ptr %5, align 8, !tbaa !8
  store ptr %25, ptr %3, align 8
  br label %131

26:                                               ; preds = %2
  %27 = load double, ptr %4, align 8, !tbaa !73
  %28 = call noundef double @_ZNSt14numeric_limitsIdE8infinityEv() #3
  %29 = fneg double %28
  %30 = fcmp oeq double %27, %29
  br i1 %30, label %31, label %35

31:                                               ; preds = %26
  %32 = load ptr, ptr %5, align 8, !tbaa !8
  %33 = call ptr @strcpy(ptr noundef %32, ptr noundef @.str.12) #3
  %34 = load ptr, ptr %5, align 8, !tbaa !8
  store ptr %34, ptr %3, align 8
  br label %131

35:                                               ; preds = %26
  %36 = load double, ptr %4, align 8, !tbaa !73
  %37 = call noundef zeroext i1 @_ZSt5isnand(double noundef %36)
  br i1 %37, label %38, label %42

38:                                               ; preds = %35
  %39 = load ptr, ptr %5, align 8, !tbaa !8
  %40 = call ptr @strcpy(ptr noundef %39, ptr noundef @.str.13) #3
  %41 = load ptr, ptr %5, align 8, !tbaa !8
  store ptr %41, ptr %3, align 8
  br label %131

42:                                               ; preds = %35
  br label %43

43:                                               ; preds = %42
  br label %44

44:                                               ; preds = %43
  call void @llvm.lifetime.start.p0(i64 4, ptr %6) #3
  %45 = load ptr, ptr %5, align 8, !tbaa !8
  %46 = load double, ptr %4, align 8, !tbaa !73
  %47 = call i32 (ptr, i64, ptr, ...) @snprintf(ptr noundef %45, i64 noundef 32, ptr noundef @.str.14, i32 noundef 15, double noundef %46) #3
  store i32 %47, ptr %6, align 4, !tbaa !15
  br label %48

48:                                               ; preds = %66, %44
  br i1 false, label %49, label %82

49:                                               ; preds = %48
  %50 = load i32, ptr %6, align 4, !tbaa !15
  %51 = icmp sgt i32 %50, 0
  store i1 false, ptr %8, align 1
  store i1 false, ptr %9, align 1
  call void @llvm.lifetime.start.p0(i64 1, ptr %12) #3
  br i1 %51, label %52, label %56

52:                                               ; preds = %49
  %53 = load i32, ptr %6, align 4, !tbaa !15
  %54 = icmp slt i32 %53, 32
  br i1 %54, label %55, label %56

55:                                               ; preds = %52
  br label %60

56:                                               ; preds = %52, %49
  call void @llvm.lifetime.start.p0(i64 56, ptr %7) #3
  store i1 true, ptr %8, align 1
  call void @_ZN6google8protobuf8internal10LogMessageC1ENS0_8LogLevelEPKci(ptr noundef nonnull align 8 dereferenceable(56) %7, i32 noundef 3, ptr noundef @.str, i32 noundef 1265)
  store i1 true, ptr %9, align 1
  %57 = invoke noundef nonnull align 8 dereferenceable(56) ptr @_ZN6google8protobuf8internal10LogMessagelsEPKc(ptr noundef nonnull align 8 dereferenceable(56) %7, ptr noundef @.str.15)
          to label %58 unwind label %67

58:                                               ; preds = %56
  invoke void @_ZN6google8protobuf8internal11LogFinisheraSERNS1_10LogMessageE(ptr noundef nonnull align 1 dereferenceable(1) %12, ptr noundef nonnull align 8 dereferenceable(56) %57)
          to label %59 unwind label %71

59:                                               ; preds = %58
  br label %60

60:                                               ; preds = %59, %55
  call void @llvm.lifetime.end.p0(i64 1, ptr %12) #3
  %61 = load i1, ptr %9, align 1
  br i1 %61, label %62, label %63

62:                                               ; preds = %60
  call void @_ZN6google8protobuf8internal10LogMessageD1Ev(ptr noundef nonnull align 8 dereferenceable(56) %7) #3
  br label %63

63:                                               ; preds = %62, %60
  %64 = load i1, ptr %8, align 1
  br i1 %64, label %65, label %66

65:                                               ; preds = %63
  call void @llvm.lifetime.end.p0(i64 56, ptr %7) #3
  br label %66

66:                                               ; preds = %65, %63
  br label %48, !llvm.loop !75

67:                                               ; preds = %56
  %68 = landingpad { ptr, i32 }
          cleanup
  %69 = extractvalue { ptr, i32 } %68, 0
  store ptr %69, ptr %10, align 8
  %70 = extractvalue { ptr, i32 } %68, 1
  store i32 %70, ptr %11, align 4
  br label %75

71:                                               ; preds = %58
  %72 = landingpad { ptr, i32 }
          cleanup
  %73 = extractvalue { ptr, i32 } %72, 0
  store ptr %73, ptr %10, align 8
  %74 = extractvalue { ptr, i32 } %72, 1
  store i32 %74, ptr %11, align 4
  call void @llvm.lifetime.end.p0(i64 1, ptr %12) #3
  br label %75

75:                                               ; preds = %71, %67
  %76 = load i1, ptr %9, align 1
  br i1 %76, label %77, label %78

77:                                               ; preds = %75
  call void @_ZN6google8protobuf8internal10LogMessageD1Ev(ptr noundef nonnull align 8 dereferenceable(56) %7) #3
  br label %78

78:                                               ; preds = %77, %75
  %79 = load i1, ptr %8, align 1
  br i1 %79, label %80, label %81

80:                                               ; preds = %78
  call void @llvm.lifetime.end.p0(i64 56, ptr %7) #3
  br label %81

81:                                               ; preds = %80, %78
  br label %130

82:                                               ; preds = %48
  call void @llvm.lifetime.start.p0(i64 8, ptr %13) #3
  %83 = load ptr, ptr %5, align 8, !tbaa !8
  %84 = call noundef double @_ZN6google8protobuf8internal14NoLocaleStrtodEPKcPPc(ptr noundef %83, ptr noundef null)
  store volatile double %84, ptr %13, align 8, !tbaa !73
  %85 = load volatile double, ptr %13, align 8, !tbaa !73
  %86 = load double, ptr %4, align 8, !tbaa !73
  %87 = fcmp une double %85, %86
  br i1 %87, label %88, label %127

88:                                               ; preds = %82
  call void @llvm.lifetime.start.p0(i64 4, ptr %14) #3
  %89 = load ptr, ptr %5, align 8, !tbaa !8
  %90 = load double, ptr %4, align 8, !tbaa !73
  %91 = call i32 (ptr, i64, ptr, ...) @snprintf(ptr noundef %89, i64 noundef 32, ptr noundef @.str.14, i32 noundef 17, double noundef %90) #3
  store i32 %91, ptr %14, align 4, !tbaa !15
  br label %92

92:                                               ; preds = %110, %88
  br i1 false, label %93, label %126

93:                                               ; preds = %92
  %94 = load i32, ptr %14, align 4, !tbaa !15
  %95 = icmp sgt i32 %94, 0
  store i1 false, ptr %16, align 1
  store i1 false, ptr %17, align 1
  call void @llvm.lifetime.start.p0(i64 1, ptr %18) #3
  br i1 %95, label %96, label %100

96:                                               ; preds = %93
  %97 = load i32, ptr %14, align 4, !tbaa !15
  %98 = icmp slt i32 %97, 32
  br i1 %98, label %99, label %100

99:                                               ; preds = %96
  br label %104

100:                                              ; preds = %96, %93
  call void @llvm.lifetime.start.p0(i64 56, ptr %15) #3
  store i1 true, ptr %16, align 1
  call void @_ZN6google8protobuf8internal10LogMessageC1ENS0_8LogLevelEPKci(ptr noundef nonnull align 8 dereferenceable(56) %15, i32 noundef 3, ptr noundef @.str, i32 noundef 1279)
  store i1 true, ptr %17, align 1
  %101 = invoke noundef nonnull align 8 dereferenceable(56) ptr @_ZN6google8protobuf8internal10LogMessagelsEPKc(ptr noundef nonnull align 8 dereferenceable(56) %15, ptr noundef @.str.15)
          to label %102 unwind label %111

102:                                              ; preds = %100
  invoke void @_ZN6google8protobuf8internal11LogFinisheraSERNS1_10LogMessageE(ptr noundef nonnull align 1 dereferenceable(1) %18, ptr noundef nonnull align 8 dereferenceable(56) %101)
          to label %103 unwind label %115

103:                                              ; preds = %102
  br label %104

104:                                              ; preds = %103, %99
  call void @llvm.lifetime.end.p0(i64 1, ptr %18) #3
  %105 = load i1, ptr %17, align 1
  br i1 %105, label %106, label %107

106:                                              ; preds = %104
  call void @_ZN6google8protobuf8internal10LogMessageD1Ev(ptr noundef nonnull align 8 dereferenceable(56) %15) #3
  br label %107

107:                                              ; preds = %106, %104
  %108 = load i1, ptr %16, align 1
  br i1 %108, label %109, label %110

109:                                              ; preds = %107
  call void @llvm.lifetime.end.p0(i64 56, ptr %15) #3
  br label %110

110:                                              ; preds = %109, %107
  br label %92, !llvm.loop !76

111:                                              ; preds = %100
  %112 = landingpad { ptr, i32 }
          cleanup
  %113 = extractvalue { ptr, i32 } %112, 0
  store ptr %113, ptr %10, align 8
  %114 = extractvalue { ptr, i32 } %112, 1
  store i32 %114, ptr %11, align 4
  br label %119

115:                                              ; preds = %102
  %116 = landingpad { ptr, i32 }
          cleanup
  %117 = extractvalue { ptr, i32 } %116, 0
  store ptr %117, ptr %10, align 8
  %118 = extractvalue { ptr, i32 } %116, 1
  store i32 %118, ptr %11, align 4
  call void @llvm.lifetime.end.p0(i64 1, ptr %18) #3
  br label %119

119:                                              ; preds = %115, %111
  %120 = load i1, ptr %17, align 1
  br i1 %120, label %121, label %122

121:                                              ; preds = %119
  call void @_ZN6google8protobuf8internal10LogMessageD1Ev(ptr noundef nonnull align 8 dereferenceable(56) %15) #3
  br label %122

122:                                              ; preds = %121, %119
  %123 = load i1, ptr %16, align 1
  br i1 %123, label %124, label %125

124:                                              ; preds = %122
  call void @llvm.lifetime.end.p0(i64 56, ptr %15) #3
  br label %125

125:                                              ; preds = %124, %122
  call void @llvm.lifetime.end.p0(i64 4, ptr %14) #3
  call void @llvm.lifetime.end.p0(i64 8, ptr %13) #3
  br label %130

126:                                              ; preds = %92
  call void @llvm.lifetime.end.p0(i64 4, ptr %14) #3
  br label %127

127:                                              ; preds = %126, %82
  %128 = load ptr, ptr %5, align 8, !tbaa !8
  call void @_ZN6google8protobuf15DelocalizeRadixEPc(ptr noundef %128)
  %129 = load ptr, ptr %5, align 8, !tbaa !8
  store ptr %129, ptr %3, align 8
  call void @llvm.lifetime.end.p0(i64 8, ptr %13) #3
  call void @llvm.lifetime.end.p0(i64 4, ptr %6) #3
  br label %131

130:                                              ; preds = %125, %81
  call void @llvm.lifetime.end.p0(i64 4, ptr %6) #3
  br label %133

131:                                              ; preds = %127, %38, %31, %22
  %132 = load ptr, ptr %3, align 8
  ret ptr %132

133:                                              ; preds = %130
  %134 = load ptr, ptr %10, align 8
  %135 = load i32, ptr %11, align 4
  %136 = insertvalue { ptr, i32 } poison, ptr %134, 0
  %137 = insertvalue { ptr, i32 } %136, i32 %135, 1
  resume { ptr, i32 } %137
}